; ModuleID = '24/2486.c'
source_filename = "24/2486.c"
target datalayout = "e-m:e-p270:32:32-p271:32:32-p272:64:64-i64:64-f80:128-n8:16:32:64-S128"
target triple = "x86_64-pc-linux-gnu"

@.str = private unnamed_addr constant [3 x i8] c"%c\00", align 1
@.str.1 = private unnamed_addr constant [2 x i8] c"\0A\00", align 1

; Function Attrs: noinline nounwind uwtable
define dso_local i32 @main() #0 {
  %1 = alloca i32, align 4
  %2 = alloca [500 x i8], align 16
  %3 = alloca [500 x i32], align 16
  %4 = alloca [500 x [100 x i8]], align 16
  %5 = alloca i32, align 4
  %6 = alloca i32, align 4
  %7 = alloca i32, align 4
  %8 = alloca i32, align 4
  %9 = alloca i32, align 4
  %10 = alloca i32, align 4
  %11 = alloca i32, align 4
  store i32 0, i32* %1, align 4
  %12 = getelementptr inbounds [500 x i8], [500 x i8]* %2, i64 0, i64 0
  %13 = call i32 (i8*, ...) bitcast (i32 (...)* @gets to i32 (i8*, ...)*)(i8* %12)
  store i32 0, i32* %6, align 4
  store i32 0, i32* %7, align 4
  %14 = getelementptr inbounds [500 x i32], [500 x i32]* %3, i64 0, i64 0
  store i32 0, i32* %14, align 16
  store i32 0, i32* %5, align 4
  br label %15

15:                                               ; preds = %76, %0
  %16 = load i32, i32* %5, align 4
  %17 = sext i32 %16 to i64
  %18 = getelementptr inbounds [500 x i8], [500 x i8]* %2, i64 0, i64 %17
  %19 = load i8, i8* %18, align 1
  %20 = sext i8 %19 to i32
  %21 = icmp ne i32 %20, 0
  br i1 %21, label %22, label %79

22:                                               ; preds = %15
  %23 = load i32, i32* %5, align 4
  %24 = sext i32 %23 to i64
  %25 = getelementptr inbounds [500 x i8], [500 x i8]* %2, i64 0, i64 %24
  %26 = load i8, i8* %25, align 1
  %27 = sext i8 %26 to i32
  %28 = icmp ne i32 %27, 32
  br i1 %28, label %29, label %54

29:                                               ; preds = %22
  %30 = load i32, i32* %5, align 4
  %31 = sext i32 %30 to i64
  %32 = getelementptr inbounds [500 x i8], [500 x i8]* %2, i64 0, i64 %31
  %33 = load i8, i8* %32, align 1
  %34 = sext i8 %33 to i32
  %35 = icmp ne i32 %34, 44
  br i1 %35, label %36, label %54

36:                                               ; preds = %29
  %37 = load i32, i32* %6, align 4
  %38 = sext i32 %37 to i64
  %39 = getelementptr inbounds [500 x i32], [500 x i32]* %3, i64 0, i64 %38
  %40 = load i32, i32* %39, align 4
  %41 = add nsw i32 %40, 1
  store i32 %41, i32* %39, align 4
  %42 = load i32, i32* %5, align 4
  %43 = sext i32 %42 to i64
  %44 = getelementptr inbounds [500 x i8], [500 x i8]* %2, i64 0, i64 %43
  %45 = load i8, i8* %44, align 1
  %46 = load i32, i32* %6, align 4
  %47 = sext i32 %46 to i64
  %48 = getelementptr inbounds [500 x [100 x i8]], [500 x [100 x i8]]* %4, i64 0, i64 %47
  %49 = load i32, i32* %7, align 4
  %50 = sext i32 %49 to i64
  %51 = getelementptr inbounds [100 x i8], [100 x i8]* %48, i64 0, i64 %50
  store i8 %45, i8* %51, align 1
  %52 = load i32, i32* %7, align 4
  %53 = add nsw i32 %52, 1
  store i32 %53, i32* %7, align 4
  br label %75

54:                                               ; preds = %29, %22
  %55 = load i32, i32* %5, align 4
  %56 = sext i32 %55 to i64
  %57 = getelementptr inbounds [500 x i8], [500 x i8]* %2, i64 0, i64 %56
  %58 = load i8, i8* %57, align 1
  %59 = sext i8 %58 to i32
  %60 = icmp eq i32 %59, 32
  br i1 %60, label %68, label %61

61:                                               ; preds = %54
  %62 = load i32, i32* %5, align 4
  %63 = sext i32 %62 to i64
  %64 = getelementptr inbounds [500 x i8], [500 x i8]* %2, i64 0, i64 %63
  %65 = load i8, i8* %64, align 1
  %66 = sext i8 %65 to i32
  %67 = icmp eq i32 %66, 44
  br i1 %67, label %68, label %74

68:                                               ; preds = %61, %54
  %69 = load i32, i32* %6, align 4
  %70 = add nsw i32 %69, 1
  store i32 %70, i32* %6, align 4
  store i32 0, i32* %7, align 4
  %71 = load i32, i32* %6, align 4
  %72 = sext i32 %71 to i64
  %73 = getelementptr inbounds [500 x i32], [500 x i32]* %3, i64 0, i64 %72
  store i32 0, i32* %73, align 4
  br label %74

74:                                               ; preds = %68, %61
  br label %75

75:                                               ; preds = %74, %36
  br label %76

76:                                               ; preds = %75
  %77 = load i32, i32* %5, align 4
  %78 = add nsw i32 %77, 1
  store i32 %78, i32* %5, align 4
  br label %15

79:                                               ; preds = %15
  store i32 0, i32* %8, align 4
  store i32 0, i32* %9, align 4
  %80 = getelementptr inbounds [500 x i32], [500 x i32]* %3, i64 0, i64 0
  %81 = load i32, i32* %80, align 16
  store i32 %81, i32* %10, align 4
  %82 = getelementptr inbounds [500 x i32], [500 x i32]* %3, i64 0, i64 0
  %83 = load i32, i32* %82, align 16
  store i32 %83, i32* %11, align 4
  store i32 1, i32* %5, align 4
  br label %84

84:                                               ; preds = %102, %79
  %85 = load i32, i32* %5, align 4
  %86 = load i32, i32* %6, align 4
  %87 = icmp sle i32 %85, %86
  br i1 %87, label %88, label %105

88:                                               ; preds = %84
  %89 = load i32, i32* %5, align 4
  %90 = sext i32 %89 to i64
  %91 = getelementptr inbounds [500 x i32], [500 x i32]* %3, i64 0, i64 %90
  %92 = load i32, i32* %91, align 4
  %93 = load i32, i32* %10, align 4
  %94 = icmp sgt i32 %92, %93
  br i1 %94, label %95, label %101

95:                                               ; preds = %88
  %96 = load i32, i32* %5, align 4
  %97 = sext i32 %96 to i64
  %98 = getelementptr inbounds [500 x i32], [500 x i32]* %3, i64 0, i64 %97
  %99 = load i32, i32* %98, align 4
  store i32 %99, i32* %10, align 4
  %100 = load i32, i32* %5, align 4
  store i32 %100, i32* %8, align 4
  br label %101

101:                                              ; preds = %95, %88
  br label %102

102:                                              ; preds = %101
  %103 = load i32, i32* %5, align 4
  %104 = add nsw i32 %103, 1
  store i32 %104, i32* %5, align 4
  br label %84

105:                                              ; preds = %84
  store i32 1, i32* %5, align 4
  br label %106

106:                                              ; preds = %130, %105
  %107 = load i32, i32* %5, align 4
  %108 = load i32, i32* %6, align 4
  %109 = icmp sle i32 %107, %108
  br i1 %109, label %110, label %133

110:                                              ; preds = %106
  %111 = load i32, i32* %5, align 4
  %112 = sext i32 %111 to i64
  %113 = getelementptr inbounds [500 x i32], [500 x i32]* %3, i64 0, i64 %112
  %114 = load i32, i32* %113, align 4
  %115 = load i32, i32* %11, align 4
  %116 = icmp slt i32 %114, %115
  br i1 %116, label %117, label %129

117:                                              ; preds = %110
  %118 = load i32, i32* %5, align 4
  %119 = sext i32 %118 to i64
  %120 = getelementptr inbounds [500 x i32], [500 x i32]* %3, i64 0, i64 %119
  %121 = load i32, i32* %120, align 4
  %122 = icmp sgt i32 %121, 0
  br i1 %122, label %123, label %129

123:                                              ; preds = %117
  %124 = load i32, i32* %5, align 4
  %125 = sext i32 %124 to i64
  %126 = getelementptr inbounds [500 x i32], [500 x i32]* %3, i64 0, i64 %125
  %127 = load i32, i32* %126, align 4
  store i32 %127, i32* %11, align 4
  %128 = load i32, i32* %5, align 4
  store i32 %128, i32* %9, align 4
  br label %129

129:                                              ; preds = %123, %117, %110
  br label %130

130:                                              ; preds = %129
  %131 = load i32, i32* %5, align 4
  %132 = add nsw i32 %131, 1
  store i32 %132, i32* %5, align 4
  br label %106

133:                                              ; preds = %106
  store i32 0, i32* %5, align 4
  br label %134

134:                                              ; preds = %148, %133
  %135 = load i32, i32* %5, align 4
  %136 = load i32, i32* %10, align 4
  %137 = icmp slt i32 %135, %136
  br i1 %137, label %138, label %151

138:                                              ; preds = %134
  %139 = load i32, i32* %8, align 4
  %140 = sext i32 %139 to i64
  %141 = getelementptr inbounds [500 x [100 x i8]], [500 x [100 x i8]]* %4, i64 0, i64 %140
  %142 = load i32, i32* %5, align 4
  %143 = sext i32 %142 to i64
  %144 = getelementptr inbounds [100 x i8], [100 x i8]* %141, i64 0, i64 %143
  %145 = load i8, i8* %144, align 1
  %146 = sext i8 %145 to i32
  %147 = call i32 (i8*, ...) @printf(i8* getelementptr inbounds ([3 x i8], [3 x i8]* @.str, i64 0, i64 0), i32 %146)
  br label %148

148:                                              ; preds = %138
  %149 = load i32, i32* %5, align 4
  %150 = add nsw i32 %149, 1
  store i32 %150, i32* %5, align 4
  br label %134

151:                                              ; preds = %134
  %152 = call i32 (i8*, ...) @printf(i8* getelementptr inbounds ([2 x i8], [2 x i8]* @.str.1, i64 0, i64 0))
  store i32 0, i32* %5, align 4
  br label %153

153:                                              ; preds = %167, %151
  %154 = load i32, i32* %5, align 4
  %155 = load i32, i32* %11, align 4
  %156 = icmp slt i32 %154, %155
  br i1 %156, label %157, label %170

157:                                              ; preds = %153
  %158 = load i32, i32* %9, align 4
  %159 = sext i32 %158 to i64
  %160 = getelementptr inbounds [500 x [100 x i8]], [500 x [100 x i8]]* %4, i64 0, i64 %159
  %161 = load i32, i32* %5, align 4
  %162 = sext i32 %161 to i64
  %163 = getelementptr inbounds [100 x i8], [100 x i8]* %160, i64 0, i64 %162
  %164 = load i8, i8* %163, align 1
  %165 = sext i8 %164 to i32
  %166 = call i32 (i8*, ...) @printf(i8* getelementptr inbounds ([3 x i8], [3 x i8]* @.str, i64 0, i64 0), i32 %165)
  br label %167

167:                                              ; preds = %157
  %168 = load i32, i32* %5, align 4
  %169 = add nsw i32 %168, 1
  store i32 %169, i32* %5, align 4
  br label %153

170:                                              ; preds = %153
  ret i32 0
}

declare dso_local i32 @gets(...) #1

declare dso_local i32 @printf(i8*, ...) #1


!llvm.module.flags = !{!0}
!llvm.ident = !{!1}

!0 = !{i32 1, !"wchar_size", i32 4}
!1 = !{!"clang version 10.0.0-4ubuntu1 "}
